target datalayout = "e-m:e-p270:32:32-p271:32:32-p272:64:64-i64:64-i128:128-f80:128-n8:16:32:64-S128"
target triple = "x86_64-pc-linux-gnu"

%struct.b2BodyId = type { i32, i16, i16 }
%struct.b2Vec2 = type { float, float }
%struct.b2Rot = type { float, float }
%struct.b2BodyArray = type { ptr, i32, i32 }
%struct.b2BodySimArray = type { ptr, i32, i32 }
%struct.b2BodyStateArray = type { ptr, i32, i32 }
%struct.b2World = type { %struct.b2ArenaAllocator, %struct.b2BroadPhase, %struct.b2ConstraintGraph, %struct.b2IdPool, %struct.b2BodyArray, %struct.b2IdPool, %struct.b2SolverSetArray, %struct.b2IdPool, %struct.b2JointArray, %struct.b2IdPool, %struct.b2ContactArray, %struct.b2IdPool, %struct.b2IslandArray, %struct.b2IdPool, %struct.b2IdPool, %struct.b2ShapeArray, %struct.b2ChainShapeArray, %struct.b2SensorArray, %struct.b2TaskContextArray, %struct.b2SensorTaskContextArray, %struct.b2BodyMoveEventArray, %struct.b2SensorBeginTouchEventArray, %struct.b2ContactBeginTouchEventArray, [2 x %struct.b2SensorEndTouchEventArray], [2 x %struct.b2ContactEndTouchEventArray], i32, %struct.b2ContactHitEventArray, %struct.b2BitSet, %struct.b2BitSet, %struct.b2BitSet, i64, i32, %struct.b2Vec2, float, float, float, float, float, float, float, float, ptr, ptr, i16, %struct.b2Profile, ptr, ptr, ptr, ptr, i32, ptr, ptr, ptr, ptr, ptr, float, i32, i32, i16, i8, i8, i8, i8, i8, i8 }
%struct.b2ArenaAllocator = type { ptr, i32, i32, i32, i32, %struct.b2ArenaEntryArray }
%struct.b2ArenaEntryArray = type { ptr, i32, i32 }
%struct.b2BroadPhase = type { [3 x %struct.b2DynamicTree], i32, %struct.b2HashSet, %struct.b2IntArray, ptr, ptr, i32, %struct.b2AtomicInt, %struct.b2HashSet }
%struct.b2DynamicTree = type { ptr, i32, i32, i32, i32, i32, ptr, ptr, ptr, ptr, i32 }
%struct.b2IntArray = type { ptr, i32, i32 }
%struct.b2AtomicInt = type { i32 }
%struct.b2HashSet = type { ptr, i32, i32 }
%struct.b2ConstraintGraph = type { [12 x %struct.b2GraphColor] }
%struct.b2GraphColor = type { %struct.b2BitSet, %struct.b2ContactSimArray, %struct.b2JointSimArray, %union.anon }
%struct.b2ContactSimArray = type { ptr, i32, i32 }
%struct.b2JointSimArray = type { ptr, i32, i32 }
%union.anon = type { ptr }
%struct.b2SolverSetArray = type { ptr, i32, i32 }
%struct.b2JointArray = type { ptr, i32, i32 }
%struct.b2ContactArray = type { ptr, i32, i32 }
%struct.b2IslandArray = type { ptr, i32, i32 }
%struct.b2IdPool = type { %struct.b2IntArray, i32 }
%struct.b2ShapeArray = type { ptr, i32, i32 }
%struct.b2ChainShapeArray = type { ptr, i32, i32 }
%struct.b2SensorArray = type { ptr, i32, i32 }
%struct.b2TaskContextArray = type { ptr, i32, i32 }
%struct.b2SensorTaskContextArray = type { ptr, i32, i32 }
%struct.b2BodyMoveEventArray = type { ptr, i32, i32 }
%struct.b2SensorBeginTouchEventArray = type { ptr, i32, i32 }
%struct.b2ContactBeginTouchEventArray = type { ptr, i32, i32 }
%struct.b2SensorEndTouchEventArray = type { ptr, i32, i32 }
%struct.b2ContactEndTouchEventArray = type { ptr, i32, i32 }
%struct.b2ContactHitEventArray = type { ptr, i32, i32 }
%struct.b2BitSet = type { ptr, i32, i32 }
%struct.b2Profile = type { float, float, float, float, float, float, float, float, float, float, float, float, float, float, float, float, float, float, float, float, float, float }
%struct.b2Body = type { [32 x i8], ptr, i32, i32, i32, i32, i32, i32, i32, i32, i32, i32, i32, i32, float, float, float, float, i32, i32, i32, i16, i8, i8, i8, i8 }
%struct.b2Transform = type { %struct.b2Vec2, %struct.b2Rot }
%struct.b2SolverSet = type { %struct.b2BodySimArray, %struct.b2BodyStateArray, %struct.b2JointSimArray, %struct.b2ContactSimArray, %struct.b2IslandSimArray, i32 }
%struct.b2IslandSimArray = type { ptr, i32, i32 }
%struct.b2BodySim = type { %struct.b2Transform, %struct.b2Vec2, %struct.b2Rot, %struct.b2Vec2, %struct.b2Vec2, %struct.b2Vec2, float, float, float, float, float, float, float, float, i32, i8, i8, i8, i8, i8 }

; Function Attrs: inlinehint nounwind uwtable
define internal ptr @b2BodySimArray_Get(ptr noundef %0, i32 noundef %1) #3 {
  %3 = alloca ptr, align 8
  %4 = alloca i32, align 4
  store ptr %0, ptr %3, align 8, !tbaa !12
  store i32 %1, ptr %4, align 4, !tbaa !3
  %5 = load ptr, ptr %3, align 8, !tbaa !12
  %6 = getelementptr inbounds nuw %struct.b2BodySimArray, ptr %5, i32 0, i32 0
  %7 = load ptr, ptr %6, align 8, !tbaa !14
  %8 = load i32, ptr %4, align 4, !tbaa !3
  %9 = sext i32 %8 to i64
  %10 = getelementptr inbounds %struct.b2BodySim, ptr %7, i64 %9
  ret ptr %10
}

; Function Attrs: inlinehint nounwind uwtable
define internal ptr @b2SolverSetArray_Get(ptr noundef %0, i32 noundef %1) #3 {
  %3 = alloca ptr, align 8
  %4 = alloca i32, align 4
  store ptr %0, ptr %3, align 8, !tbaa !12
  store i32 %1, ptr %4, align 4, !tbaa !3
  %5 = load ptr, ptr %3, align 8, !tbaa !12
  %6 = getelementptr inbounds nuw %struct.b2SolverSetArray, ptr %5, i32 0, i32 0
  %7 = load ptr, ptr %6, align 8, !tbaa !40
  %8 = load i32, ptr %4, align 4, !tbaa !3
  %9 = sext i32 %8 to i64
  %10 = getelementptr inbounds %struct.b2SolverSet, ptr %7, i64 %9
  ret ptr %10
}

; Function Attrs: inlinehint nounwind uwtable
define internal ptr @b2BodyArray_Get(ptr noundef %0, i32 noundef %1) #3 {
  %3 = alloca ptr, align 8
  %4 = alloca i32, align 4
  store ptr %0, ptr %3, align 8, !tbaa !12
  store i32 %1, ptr %4, align 4, !tbaa !3
  %5 = load ptr, ptr %3, align 8, !tbaa !12
  %6 = getelementptr inbounds nuw %struct.b2BodyArray, ptr %5, i32 0, i32 0
  %7 = load ptr, ptr %6, align 8, !tbaa !7
  %8 = load i32, ptr %4, align 4, !tbaa !3
  %9 = sext i32 %8 to i64
  %10 = getelementptr inbounds %struct.b2Body, ptr %7, i64 %9
  ret ptr %10
}

; Function Attrs: inlinehint nounwind uwtable
define internal float @b2Cross(<2 x float> %0, <2 x float> %1) #7 {
  %3 = alloca %struct.b2Vec2, align 4
  %4 = alloca %struct.b2Vec2, align 4
  store <2 x float> %0, ptr %3, align 4
  store <2 x float> %1, ptr %4, align 4
  %5 = getelementptr inbounds nuw %struct.b2Vec2, ptr %3, i32 0, i32 0
  %6 = load float, ptr %5, align 4, !tbaa !226
  %7 = getelementptr inbounds nuw %struct.b2Vec2, ptr %4, i32 0, i32 1
  %8 = load float, ptr %7, align 4, !tbaa !227
  %9 = fmul float %6, %8
  %10 = getelementptr inbounds nuw %struct.b2Vec2, ptr %3, i32 0, i32 1
  %11 = load float, ptr %10, align 4, !tbaa !227
  %12 = getelementptr inbounds nuw %struct.b2Vec2, ptr %4, i32 0, i32 0
  %13 = load float, ptr %12, align 4, !tbaa !226
  %14 = fmul float %11, %13
  %15 = fsub float %9, %14
  ret float %15
}

; Function Attrs: inlinehint nounwind uwtable
define internal <2 x float> @b2Sub(<2 x float> %0, <2 x float> %1) #7 {
  %3 = alloca %struct.b2Vec2, align 4
  %4 = alloca %struct.b2Vec2, align 4
  %5 = alloca %struct.b2Vec2, align 4
  store <2 x float> %0, ptr %4, align 4
  store <2 x float> %1, ptr %5, align 4
  %6 = getelementptr inbounds nuw %struct.b2Vec2, ptr %3, i32 0, i32 0
  %7 = getelementptr inbounds nuw %struct.b2Vec2, ptr %4, i32 0, i32 0
  %8 = load float, ptr %7, align 4, !tbaa !226
  %9 = getelementptr inbounds nuw %struct.b2Vec2, ptr %5, i32 0, i32 0
  %10 = load float, ptr %9, align 4, !tbaa !226
  %11 = fsub float %8, %10
  store float %11, ptr %6, align 4, !tbaa !226
  %12 = getelementptr inbounds nuw %struct.b2Vec2, ptr %3, i32 0, i32 1
  %13 = getelementptr inbounds nuw %struct.b2Vec2, ptr %4, i32 0, i32 1
  %14 = load float, ptr %13, align 4, !tbaa !227
  %15 = getelementptr inbounds nuw %struct.b2Vec2, ptr %5, i32 0, i32 1
  %16 = load float, ptr %15, align 4, !tbaa !227
  %17 = fsub float %14, %16
  store float %17, ptr %12, align 4, !tbaa !227
  %18 = load <2 x float>, ptr %3, align 4
  ret <2 x float> %18
}

; Function Attrs: inlinehint nounwind uwtable
define internal <2 x float> @b2Add(<2 x float> %0, <2 x float> %1) #7 {
  %3 = alloca %struct.b2Vec2, align 4
  %4 = alloca %struct.b2Vec2, align 4
  %5 = alloca %struct.b2Vec2, align 4
  store <2 x float> %0, ptr %4, align 4
  store <2 x float> %1, ptr %5, align 4
  %6 = getelementptr inbounds nuw %struct.b2Vec2, ptr %3, i32 0, i32 0
  %7 = getelementptr inbounds nuw %struct.b2Vec2, ptr %4, i32 0, i32 0
  %8 = load float, ptr %7, align 4, !tbaa !226
  %9 = getelementptr inbounds nuw %struct.b2Vec2, ptr %5, i32 0, i32 0
  %10 = load float, ptr %9, align 4, !tbaa !226
  %11 = fadd float %8, %10
  store float %11, ptr %6, align 4, !tbaa !226
  %12 = getelementptr inbounds nuw %struct.b2Vec2, ptr %3, i32 0, i32 1
  %13 = getelementptr inbounds nuw %struct.b2Vec2, ptr %4, i32 0, i32 1
  %14 = load float, ptr %13, align 4, !tbaa !227
  %15 = getelementptr inbounds nuw %struct.b2Vec2, ptr %5, i32 0, i32 1
  %16 = load float, ptr %15, align 4, !tbaa !227
  %17 = fadd float %14, %16
  store float %17, ptr %12, align 4, !tbaa !227
  %18 = load <2 x float>, ptr %3, align 4
  ret <2 x float> %18
}

; Function Attrs: nounwind uwtable
define hidden ptr @b2GetBodySim(ptr noundef %0, ptr noundef %1) #0 {
  %3 = alloca ptr, align 8
  %4 = alloca ptr, align 8
  %5 = alloca ptr, align 8
  %6 = alloca ptr, align 8
  store ptr %0, ptr %3, align 8, !tbaa !24
  store ptr %1, ptr %4, align 8, !tbaa !29
  call void @llvm.lifetime.start.p0(i64 8, ptr %5) #8
  %7 = load ptr, ptr %3, align 8, !tbaa !24
  %8 = getelementptr inbounds nuw %struct.b2World, ptr %7, i32 0, i32 6
  %9 = load ptr, ptr %4, align 8, !tbaa !29
  %10 = getelementptr inbounds nuw %struct.b2Body, ptr %9, i32 0, i32 2
  %11 = load i32, ptr %10, align 8, !tbaa !30
  %12 = call ptr @b2SolverSetArray_Get(ptr noundef %8, i32 noundef %11)
  store ptr %12, ptr %5, align 8, !tbaa !34
  call void @llvm.lifetime.start.p0(i64 8, ptr %6) #8
  %13 = load ptr, ptr %5, align 8, !tbaa !34
  %14 = getelementptr inbounds nuw %struct.b2SolverSet, ptr %13, i32 0, i32 0
  %15 = load ptr, ptr %4, align 8, !tbaa !29
  %16 = getelementptr inbounds nuw %struct.b2Body, ptr %15, i32 0, i32 3
  %17 = load i32, ptr %16, align 4, !tbaa !36
  %18 = call ptr @b2BodySimArray_Get(ptr noundef %14, i32 noundef %17)
  store ptr %18, ptr %6, align 8, !tbaa !37
  %19 = load ptr, ptr %6, align 8, !tbaa !37
  call void @llvm.lifetime.end.p0(i64 8, ptr %6) #8
  call void @llvm.lifetime.end.p0(i64 8, ptr %5) #8
  ret ptr %19
}

; Function Attrs: nounwind uwtable
define hidden zeroext i1 @b2WakeBody(ptr noundef %0, ptr noundef %1) #0 {
  %3 = alloca i1, align 1
  %4 = alloca ptr, align 8
  %5 = alloca ptr, align 8
  store ptr %0, ptr %4, align 8, !tbaa !24
  store ptr %1, ptr %5, align 8, !tbaa !29
  %6 = load ptr, ptr %5, align 8, !tbaa !29
  %7 = getelementptr inbounds nuw %struct.b2Body, ptr %6, i32 0, i32 2
  %8 = load i32, ptr %7, align 8, !tbaa !30
  %9 = icmp sge i32 %8, 3
  br i1 %9, label %10, label %15

10:                                               ; preds = %2
  %11 = load ptr, ptr %4, align 8, !tbaa !24
  %12 = load ptr, ptr %5, align 8, !tbaa !29
  %13 = getelementptr inbounds nuw %struct.b2Body, ptr %12, i32 0, i32 2
  %14 = load i32, ptr %13, align 8, !tbaa !30
  call void @b2WakeSolverSet(ptr noundef %11, i32 noundef %14)
  store i1 true, ptr %3, align 1
  br label %16

15:                                               ; preds = %2
  store i1 false, ptr %3, align 1
  br label %16

16:                                               ; preds = %15, %10
  %17 = load i1, ptr %3, align 1
  ret i1 %17
}

; Function Attrs: nounwind uwtable
define hidden ptr @b2GetBodyFullId(ptr noundef %0, i64 %1) #0 {
  %3 = alloca %struct.b2BodyId, align 4
  %4 = alloca ptr, align 8
  store i64 %1, ptr %3, align 4
  store ptr %0, ptr %4, align 8, !tbaa !24
  %5 = load ptr, ptr %4, align 8, !tbaa !24
  %6 = getelementptr inbounds nuw %struct.b2World, ptr %5, i32 0, i32 4
  %7 = getelementptr inbounds nuw %struct.b2BodyId, ptr %3, i32 0, i32 0
  %8 = load i32, ptr %7, align 4, !tbaa !26
  %9 = sub nsw i32 %8, 1
  %10 = call ptr @b2BodyArray_Get(ptr noundef %6, i32 noundef %9)
  ret ptr %10
}

; Function Attrs: nounwind uwtable
define void @b2Body_ApplyForce(i64 %0, <2 x float> %1, <2 x float> %2, i1 noundef zeroext %3) #6 {
  %5 = alloca %struct.b2BodyId, align 4
  %6 = alloca %struct.b2Vec2, align 4
  %7 = alloca %struct.b2Vec2, align 4
  %8 = alloca i8, align 1
  %9 = alloca ptr, align 8
  %10 = alloca ptr, align 8
  %11 = alloca ptr, align 8
  %12 = alloca %struct.b2Vec2, align 4
  %13 = alloca %struct.b2Vec2, align 4
  store i64 %0, ptr %5, align 4
  store <2 x float> %1, ptr %6, align 4
  store <2 x float> %2, ptr %7, align 4
  %14 = zext i1 %3 to i8
  store i8 %14, ptr %8, align 1, !tbaa !102
  call void @llvm.lifetime.start.p0(i64 8, ptr %9) #8
  %15 = getelementptr inbounds nuw %struct.b2BodyId, ptr %5, i32 0, i32 1
  %16 = load i16, ptr %15, align 4, !tbaa !87
  %17 = zext i16 %16 to i32
  %18 = call ptr @b2GetWorld(i32 noundef %17)
  store ptr %18, ptr %9, align 8, !tbaa !24
  call void @llvm.lifetime.start.p0(i64 8, ptr %10) #8
  %19 = load ptr, ptr %9, align 8, !tbaa !24
  %20 = load i64, ptr %5, align 4
  %21 = call ptr @b2GetBodyFullId(ptr noundef %19, i64 %20)
  store ptr %21, ptr %10, align 8, !tbaa !29
  %22 = load i8, ptr %8, align 1, !tbaa !102, !range !93, !noundef !94
  %23 = trunc i8 %22 to i1
  br i1 %23, label %24, label %33

24:                                               ; preds = %4
  %25 = load ptr, ptr %10, align 8, !tbaa !29
  %26 = getelementptr inbounds nuw %struct.b2Body, ptr %25, i32 0, i32 2
  %27 = load i32, ptr %26, align 8, !tbaa !30
  %28 = icmp sge i32 %27, 3
  br i1 %28, label %29, label %33

29:                                               ; preds = %24
  %30 = load ptr, ptr %9, align 8, !tbaa !24
  %31 = load ptr, ptr %10, align 8, !tbaa !29
  %32 = call zeroext i1 @b2WakeBody(ptr noundef %30, ptr noundef %31)
  br label %33

33:                                               ; preds = %29, %24, %4
  %34 = load ptr, ptr %10, align 8, !tbaa !29
  %35 = getelementptr inbounds nuw %struct.b2Body, ptr %34, i32 0, i32 2
  %36 = load i32, ptr %35, align 8, !tbaa !30
  %37 = icmp eq i32 %36, 2
  br i1 %37, label %38, label %61

38:                                               ; preds = %33
  call void @llvm.lifetime.start.p0(i64 8, ptr %11) #8
  %39 = load ptr, ptr %9, align 8, !tbaa !24
  %40 = load ptr, ptr %10, align 8, !tbaa !29
  %41 = call ptr @b2GetBodySim(ptr noundef %39, ptr noundef %40)
  store ptr %41, ptr %11, align 8, !tbaa !37
  %42 = load ptr, ptr %11, align 8, !tbaa !37
  %43 = getelementptr inbounds nuw %struct.b2BodySim, ptr %42, i32 0, i32 5
  call void @llvm.lifetime.start.p0(i64 8, ptr %12) #8
  %44 = load ptr, ptr %11, align 8, !tbaa !37
  %45 = getelementptr inbounds nuw %struct.b2BodySim, ptr %44, i32 0, i32 5
  %46 = load <2 x float>, ptr %45, align 4
  %47 = load <2 x float>, ptr %6, align 4
  %48 = call <2 x float> @b2Add(<2 x float> %46, <2 x float> %47)
  store <2 x float> %48, ptr %12, align 4
  call void @llvm.memcpy.p0.p0.i64(ptr align 4 %43, ptr align 4 %12, i64 8, i1 false), !tbaa.struct !115
  call void @llvm.lifetime.end.p0(i64 8, ptr %12) #8
  %49 = load ptr, ptr %11, align 8, !tbaa !37
  %50 = getelementptr inbounds nuw %struct.b2BodySim, ptr %49, i32 0, i32 1
  %51 = load <2 x float>, ptr %7, align 4
  %52 = load <2 x float>, ptr %50, align 4
  %53 = call <2 x float> @b2Sub(<2 x float> %51, <2 x float> %52)
  store <2 x float> %53, ptr %13, align 4
  %54 = load <2 x float>, ptr %13, align 4
  %55 = load <2 x float>, ptr %6, align 4
  %56 = call float @b2Cross(<2 x float> %54, <2 x float> %55)
  %57 = load ptr, ptr %11, align 8, !tbaa !37
  %58 = getelementptr inbounds nuw %struct.b2BodySim, ptr %57, i32 0, i32 6
  %59 = load float, ptr %58, align 4, !tbaa !116
  %60 = fadd float %59, %56
  store float %60, ptr %58, align 4, !tbaa !116
  call void @llvm.lifetime.end.p0(i64 8, ptr %11) #8
  br label %61

61:                                               ; preds = %38, %33
  call void @llvm.lifetime.end.p0(i64 8, ptr %10) #8
  call void @llvm.lifetime.end.p0(i64 8, ptr %9) #8
  ret void
}