; Function Attrs: nounwind uwtable
define void @b2Body_ApplyForce(i64 %0, <2 x float> %1, <2 x float> %2, i1 noundef zeroext %3) local_unnamed_addr #8 {
  %.sroa.2.0.extract.shift = lshr i64 %0, 32
  %5 = trunc nuw i64 %.sroa.2.0.extract.shift to i32
  %6 = and i32 %5, 65535
  %7 = tail call ptr @b2GetWorld(i32 noundef %6) #10
  %8 = getelementptr inbounds nuw i8, ptr %7, i64 1032
  %.val.i = load ptr, ptr %8, align 8, !tbaa !10
  %9 = shl i64 %0, 32
  %sext.i = add i64 %9, -4294967296
  %10 = ashr exact i64 %sext.i, 25
  %11 = getelementptr inbounds i8, ptr %.val.i, i64 %10
  br i1 %3, label %12, label %16

12:                                               ; preds = %4
  %13 = getelementptr inbounds nuw i8, ptr %11, i64 40
  %14 = load i32, ptr %13, align 8, !tbaa !19
  %15 = icmp sgt i32 %14, 2
  br i1 %15, label %b2WakeBody.exit, label %16

b2WakeBody.exit:                                  ; preds = %12
  tail call void @b2WakeSolverSet(ptr noundef nonnull %7, i32 noundef %14) #10
  br label %16

16:                                               ; preds = %b2WakeBody.exit, %12, %4
  %17 = getelementptr inbounds nuw i8, ptr %11, i64 40
  %18 = load i32, ptr %17, align 8, !tbaa !19
  %19 = icmp eq i32 %18, 2
  br i1 %19, label %20, label %40

20:                                               ; preds = %16
  %21 = getelementptr inbounds nuw i8, ptr %7, i64 1072
  %.val.i16 = load ptr, ptr %21, align 8, !tbaa !24
  %22 = getelementptr inbounds nuw i8, ptr %.val.i16, i64 176
  %23 = getelementptr inbounds nuw i8, ptr %11, i64 44
  %24 = load i32, ptr %23, align 4, !tbaa !27
  %.val5.i = load ptr, ptr %22, align 8, !tbaa !14
  %25 = sext i32 %24 to i64
  %26 = getelementptr inbounds %struct.b2BodySim, ptr %.val5.i, i64 %25
  %27 = getelementptr inbounds nuw i8, ptr %26, i64 48
  %28 = load <2 x float>, ptr %27, align 4
  %.sroa.02.4.vec.insert.i = fadd <2 x float> %1, %28
  store <2 x float> %.sroa.02.4.vec.insert.i, ptr %27, align 4
  %29 = getelementptr inbounds nuw i8, ptr %26, i64 16
  %30 = load <2 x float>, ptr %29, align 4
  %31 = fsub <2 x float> %2, %30
  %32 = fsub <2 x float> %2, %30
  %shift27 = shufflevector <2 x float> %1, <2 x float> poison, <2 x i32> <i32 1, i32 poison>
  %33 = fmul <2 x float> %shift27, %31
  %shift = shufflevector <2 x float> %32, <2 x float> poison, <2 x i32> <i32 1, i32 poison>
  %34 = fmul <2 x float> %1, %shift
  %35 = fsub <2 x float> %33, %34
  %36 = extractelement <2 x float> %35, i64 0
  %37 = getelementptr inbounds nuw i8, ptr %26, i64 56
  %38 = load float, ptr %37, align 4, !tbaa !200
  %39 = fadd float %38, %36
  store float %39, ptr %37, align 4, !tbaa !200
  br label %40

40:                                               ; preds = %20, %16
  ret void
}